target datalayout = "e-m:e-p270:32:32-p271:32:32-p272:64:64-i64:64-i128:128-f80:128-n8:16:32:64-S128"
target triple = "x86_64-pc-linux-gnu"

%struct.VP8EncIterator = type { i32, i32, ptr, ptr, ptr, ptr, ptr, ptr, ptr, ptr, ptr, [37 x i8], ptr, i32, [9 x i32], [9 x i32], [4 x [3 x i64]], i64, i64, ptr, i32, i32, i32, i32, [2 x [2 x i8]], ptr, ptr, ptr, ptr, ptr, ptr, [88 x i8], [3359 x i8] }

; Function Attrs: nounwind uwtable
define hidden void @VP8SetSegment(ptr noundef %0, i32 noundef %1) #0 {
  %3 = alloca ptr, align 8
  %4 = alloca i32, align 4
  store ptr %0, ptr %3, align 8, !tbaa !3
  store i32 %1, ptr %4, align 4, !tbaa !7
  %5 = load i32, ptr %4, align 4, !tbaa !7
  %6 = load ptr, ptr %3, align 8, !tbaa !3
  %7 = getelementptr inbounds nuw %struct.VP8EncIterator, ptr %6, i32 0, i32 7
  %8 = load ptr, ptr %7, align 8, !tbaa !41
  %9 = trunc i32 %5 to i8
  %10 = load i8, ptr %8, align 4
  %11 = and i8 %9, 3
  %12 = shl i8 %11, 5
  %13 = and i8 %10, -97
  %14 = or i8 %13, %12
  store i8 %14, ptr %8, align 4
  ret void
}